target datalayout = "e-m:e-p270:32:32-p271:32:32-p272:64:64-i64:64-i128:128-f80:128-n8:16:32:64-S128"
target triple = "x86_64-pc-linux-gnu"

%struct.H5F_t = type { ptr, ptr, ptr, ptr, i32, ptr, i8, i8, ptr, i32 }
%struct.H5F_shared_t = type { ptr, ptr, ptr, i8, i32, i32, %struct.H5F_mtab_t, ptr, i8, i8, i64, i32, i32, i64, i64, ptr, ptr, %struct.H5AC_cache_config_t, %struct.H5AC_cache_image_config_t, i8, i8, ptr, i64, i32, i8, i64, i64, double, i64, i64, i64, i32, i32, i32, i8, i32, ptr, ptr, ptr, ptr, i8, i8, i8, i64, ptr, ptr, i32, i64, i8, i32, i8, i64, i8, [13 x i32], [13 x i64], [13 x ptr], i8, i64, i64, [7 x i32], [7 x i32], %struct.H5F_blk_aggr_t, %struct.H5F_blk_aggr_t, i64, i64, %struct.H5F_meta_accum_t, i32, i32, [30 x ptr], %struct.H5F_object_flush_t, i8, ptr }
%struct.H5F_mtab_t = type { i32, i32, ptr }
%struct.H5AC_cache_config_t = type { i32, i8, i8, i8, [1025 x i8], i8, i8, i64, double, i64, i64, i64, i32, double, double, i8, i64, i32, double, double, i32, double, double, i8, i64, i32, i8, double, i64, i32 }
%struct.H5AC_cache_image_config_t = type { i32, i8, i8, i32 }
%struct.H5F_blk_aggr_t = type { i64, i64, i64, i64, i64 }
%struct.H5F_meta_accum_t = type { ptr, i64, i64, i64, i64, i64, i8 }
%struct.H5F_object_flush_t = type { ptr, ptr }

@H5AC_init_g = global i8 0, align 1
@H5_libterm_g = external global i8, align 1
@.str = private unnamed_addr constant [98 x i8] c"generated/home/dtcxzyw/WorkSpace/Projects/compilers/llvm-opt-benchmark/bench/hdf5/hdf5/src/H5AC.c\00", align 1
@H5E_FUNC_g = external global i64, align 8
@H5E_CANTINIT_g = external global i64, align 8
@.str.1 = private unnamed_addr constant [32 x i8] c"interface initialization failed\00", align 1
@H5E_CACHE_g = external global i64, align 8
@H5E_SYSTEM_g = external global i64, align 8
@__func__.H5AC_cork = private unnamed_addr constant [10 x i8] c"H5AC_cork\00", align 1
@.str.65 = private unnamed_addr constant [31 x i8] c"Cannot perform the cork action\00", align 1

; Function Attrs: nounwind uwtable
define i32 @H5AC__init_package() #0 {
  %1 = load i8, ptr @H5AC_init_g, align 1, !tbaa !7, !range !9, !noundef !10
  %2 = trunc i8 %1 to i1
  br i1 %2, label %7, label %3

3:                                                ; preds = %0
  %4 = load i8, ptr @H5_libterm_g, align 1, !tbaa !7, !range !9, !noundef !10
  %5 = trunc i8 %4 to i1
  %6 = xor i1 %5, true
  br label %7

7:                                                ; preds = %3, %0
  %8 = phi i1 [ true, %0 ], [ %6, %3 ]
  %9 = xor i1 %8, true
  %10 = xor i1 %9, true
  %11 = zext i1 %10 to i32
  %12 = sext i32 %11 to i64
  %13 = call i64 @llvm.expect.i64(i64 %12, i64 1)
  %14 = icmp ne i64 %13, 0
  br i1 %14, label %15, label %16

15:                                               ; preds = %7
  br label %16

16:                                               ; preds = %15, %7
  ret i32 0
}

; Function Attrs: nounwind uwtable
define i32 @H5AC_cork(ptr noundef %0, i64 noundef %1, i32 noundef %2, ptr noundef %3) #0 {
  %5 = alloca ptr, align 8
  %6 = alloca i64, align 8
  %7 = alloca i32, align 4
  %8 = alloca ptr, align 8
  %9 = alloca i32, align 4
  %10 = alloca i8, align 1
  store ptr %0, ptr %5, align 8, !tbaa !13
  store i64 %1, ptr %6, align 8, !tbaa !11
  store i32 %2, ptr %7, align 4, !tbaa !3
  store ptr %3, ptr %8, align 8, !tbaa !75
  call void @llvm.lifetime.start.p0(i64 4, ptr %9) #6
  store i32 0, ptr %9, align 4, !tbaa !3
  call void @llvm.lifetime.start.p0(i64 1, ptr %10) #6
  store i8 0, ptr %10, align 1, !tbaa !7
  %11 = load i8, ptr @H5AC_init_g, align 1, !tbaa !7, !range !9, !noundef !10
  %12 = trunc i8 %11 to i1
  br i1 %12, label %17, label %13

13:                                               ; preds = %4
  %14 = load i8, ptr @H5_libterm_g, align 1, !tbaa !7, !range !9, !noundef !10
  %15 = trunc i8 %14 to i1
  %16 = xor i1 %15, true
  br label %17

17:                                               ; preds = %13, %4
  %18 = phi i1 [ false, %4 ], [ %16, %13 ]
  %19 = xor i1 %18, true
  %20 = xor i1 %19, true
  %21 = zext i1 %20 to i32
  %22 = sext i32 %21 to i64
  %23 = call i64 @llvm.expect.i64(i64 %22, i64 0)
  %24 = icmp ne i64 %23, 0
  br i1 %24, label %25, label %48

25:                                               ; preds = %17
  store i8 1, ptr @H5AC_init_g, align 1, !tbaa !7
  %26 = call i32 @H5AC__init_package()
  %27 = icmp slt i32 %26, 0
  br i1 %27, label %28, label %47

28:                                               ; preds = %25
  store i8 0, ptr @H5AC_init_g, align 1, !tbaa !7
  br label %29

29:                                               ; preds = %28
  br label %30

30:                                               ; preds = %29
  br label %31

31:                                               ; preds = %30
  %32 = load i64, ptr @H5E_FUNC_g, align 8, !tbaa !11
  %33 = load i64, ptr @H5E_CANTINIT_g, align 8, !tbaa !11
  %34 = call i32 (ptr, ptr, i32, i64, i64, ptr, ...) @H5E_printf_stack(ptr noundef @.str, ptr noundef @__func__.H5AC_cork, i32 noundef 2325, i64 noundef %32, i64 noundef %33, ptr noundef @.str.1)
  br label %35

35:                                               ; preds = %31
  br label %36

36:                                               ; preds = %35
  store i8 1, ptr %10, align 1, !tbaa !7
  %37 = load i8, ptr %10, align 1, !tbaa !7, !range !9, !noundef !10
  %38 = trunc i8 %37 to i1
  %39 = zext i1 %38 to i8
  store i8 %39, ptr %10, align 1, !tbaa !7
  br label %40

40:                                               ; preds = %36
  br label %41

41:                                               ; preds = %40
  br label %42

42:                                               ; preds = %41
  store i32 -1, ptr %9, align 4, !tbaa !3
  br label %111

43:                                               ; No predecessors!
  br label %44

44:                                               ; preds = %43
  br label %45

45:                                               ; preds = %44
  br label %46

46:                                               ; preds = %45
  br label %47

47:                                               ; preds = %46, %25
  br label %48

48:                                               ; preds = %47, %17
  %49 = load i8, ptr @H5AC_init_g, align 1, !tbaa !7, !range !9, !noundef !10
  %50 = trunc i8 %49 to i1
  br i1 %50, label %55, label %51

51:                                               ; preds = %48
  %52 = load i8, ptr @H5_libterm_g, align 1, !tbaa !7, !range !9, !noundef !10
  %53 = trunc i8 %52 to i1
  %54 = xor i1 %53, true
  br label %55

55:                                               ; preds = %51, %48
  %56 = phi i1 [ true, %48 ], [ %54, %51 ]
  %57 = xor i1 %56, true
  %58 = xor i1 %57, true
  %59 = zext i1 %58 to i32
  %60 = sext i32 %59 to i64
  %61 = call i64 @llvm.expect.i64(i64 %60, i64 1)
  %62 = icmp ne i64 %61, 0
  br i1 %62, label %63, label %112

63:                                               ; preds = %55
  %64 = load i32, ptr %7, align 4, !tbaa !3
  %65 = icmp eq i32 %64, 4
  br i1 %65, label %66, label %80

66:                                               ; preds = %63
  %67 = load ptr, ptr %5, align 8, !tbaa !13
  %68 = getelementptr inbounds nuw %struct.H5F_t, ptr %67, i32 0, i32 2
  %69 = load ptr, ptr %68, align 8, !tbaa !16
  %70 = getelementptr inbounds nuw %struct.H5F_shared_t, ptr %69, i32 0, i32 16
  %71 = load ptr, ptr %70, align 8, !tbaa !22
  %72 = call i32 @H5C_get_num_objs_corked(ptr noundef %71)
  %73 = icmp eq i32 %72, 0
  br i1 %73, label %74, label %79

74:                                               ; preds = %66
  %75 = load ptr, ptr %8, align 8, !tbaa !75
  store i8 0, ptr %75, align 1, !tbaa !7
  br label %76

76:                                               ; preds = %74
  store i32 0, ptr %9, align 4, !tbaa !3
  br label %111

77:                                               ; No predecessors!
  br label %78

78:                                               ; preds = %77
  br label %79

79:                                               ; preds = %78, %66
  br label %80

80:                                               ; preds = %79, %63
  %81 = load ptr, ptr %5, align 8, !tbaa !13
  %82 = getelementptr inbounds nuw %struct.H5F_t, ptr %81, i32 0, i32 2
  %83 = load ptr, ptr %82, align 8, !tbaa !16
  %84 = getelementptr inbounds nuw %struct.H5F_shared_t, ptr %83, i32 0, i32 16
  %85 = load ptr, ptr %84, align 8, !tbaa !22
  %86 = load i64, ptr %6, align 8, !tbaa !11
  %87 = load i32, ptr %7, align 4, !tbaa !3
  %88 = load ptr, ptr %8, align 8, !tbaa !75
  %89 = call i32 @H5C_cork(ptr noundef %85, i64 noundef %86, i32 noundef %87, ptr noundef %88)
  %90 = icmp slt i32 %89, 0
  br i1 %90, label %91, label %110

91:                                               ; preds = %80
  br label %92

92:                                               ; preds = %91
  br label %93

93:                                               ; preds = %92
  br label %94

94:                                               ; preds = %93
  %95 = load i64, ptr @H5E_CACHE_g, align 8, !tbaa !11
  %96 = load i64, ptr @H5E_SYSTEM_g, align 8, !tbaa !11
  %97 = call i32 (ptr, ptr, i32, i64, i64, ptr, ...) @H5E_printf_stack(ptr noundef @.str, ptr noundef @__func__.H5AC_cork, i32 noundef 2348, i64 noundef %95, i64 noundef %96, ptr noundef @.str.65)
  br label %98

98:                                               ; preds = %94
  br label %99

99:                                               ; preds = %98
  store i8 1, ptr %10, align 1, !tbaa !7
  %100 = load i8, ptr %10, align 1, !tbaa !7, !range !9, !noundef !10
  %101 = trunc i8 %100 to i1
  %102 = zext i1 %101 to i8
  store i8 %102, ptr %10, align 1, !tbaa !7
  br label %103

103:                                              ; preds = %99
  br label %104

104:                                              ; preds = %103
  br label %105

105:                                              ; preds = %104
  store i32 -1, ptr %9, align 4, !tbaa !3
  br label %111

106:                                              ; No predecessors!
  br label %107

107:                                              ; preds = %106
  br label %108

108:                                              ; preds = %107
  br label %109

109:                                              ; preds = %108
  br label %110

110:                                              ; preds = %109, %80
  br label %111

111:                                              ; preds = %110, %105, %76, %42
  br label %112

112:                                              ; preds = %111, %55
  %113 = load i32, ptr %9, align 4, !tbaa !3
  call void @llvm.lifetime.end.p0(i64 1, ptr %10) #6
  call void @llvm.lifetime.end.p0(i64 4, ptr %9) #6
  ret i32 %113
}