; Function Attrs: nounwind uwtable
define range(i32 -1, 1) i32 @H5AC_cork(ptr noundef readonly captures(none) %0, i64 noundef %1, i32 noundef %2, ptr noundef %3) local_unnamed_addr #4 {
  %5 = load i8, ptr @H5AC_init_g, align 1, !tbaa !3, !range !7, !noundef !8
  %6 = trunc nuw i8 %5 to i1
  %7 = load i8, ptr @H5_libterm_g, align 1, !range !7
  %8 = trunc nuw i8 %7 to i1
  %9 = select i1 %6, i1 true, i1 %8
  br i1 %9, label %10, label %.thread, !prof !9

.thread:                                          ; preds = %4
  store i8 1, ptr @H5AC_init_g, align 1, !tbaa !3
  br label %13

10:                                               ; preds = %4
  %11 = xor i1 %8, true
  %12 = select i1 %6, i1 true, i1 %11
  br i1 %12, label %13, label %34, !prof !41

13:                                               ; preds = %.thread, %10
  %14 = icmp eq i32 %2, 4
  br i1 %14, label %15, label %23

15:                                               ; preds = %13
  %16 = getelementptr inbounds nuw i8, ptr %0, i64 16
  %17 = load ptr, ptr %16, align 8, !tbaa !11
  %18 = getelementptr inbounds nuw i8, ptr %17, i64 112
  %19 = load ptr, ptr %18, align 8, !tbaa !20
  %20 = tail call i32 @H5C_get_num_objs_corked(ptr noundef %19) #8
  %21 = icmp eq i32 %20, 0
  br i1 %21, label %22, label %23

22:                                               ; preds = %15
  store i8 0, ptr %3, align 1, !tbaa !3
  br label %34

23:                                               ; preds = %15, %13
  %24 = getelementptr inbounds nuw i8, ptr %0, i64 16
  %25 = load ptr, ptr %24, align 8, !tbaa !11
  %26 = getelementptr inbounds nuw i8, ptr %25, i64 112
  %27 = load ptr, ptr %26, align 8, !tbaa !20
  %28 = tail call i32 @H5C_cork(ptr noundef %27, i64 noundef %1, i32 noundef %2, ptr noundef %3) #8
  %29 = icmp slt i32 %28, 0
  br i1 %29, label %30, label %34

30:                                               ; preds = %23
  %31 = load i64, ptr @H5E_CACHE_g, align 8, !tbaa !42
  %32 = load i64, ptr @H5E_SYSTEM_g, align 8, !tbaa !42
  %33 = tail call i32 (ptr, ptr, i32, i64, i64, ptr, ...) @H5E_printf_stack(ptr noundef nonnull @.str, ptr noundef nonnull @__func__.H5AC_cork, i32 noundef 2348, i64 noundef %31, i64 noundef %32, ptr noundef nonnull @.str.65) #8
  br label %34

34:                                               ; preds = %22, %30, %23, %10
  %.0 = phi i32 [ 0, %22 ], [ -1, %30 ], [ 0, %23 ], [ 0, %10 ]
  ret i32 %.0
}